; ModuleID = '17/1299.c'
source_filename = "17/1299.c"
target datalayout = "e-m:e-p270:32:32-p271:32:32-p272:64:64-i64:64-f80:128-n8:16:32:64-S128"
target triple = "x86_64-pc-linux-gnu"

@main.c = internal global [102 x i8] zeroinitializer, align 16
@main.d = internal global [102 x i8] zeroinitializer, align 16
@.str = private unnamed_addr constant [2 x i8] c"$\00", align 1
@.str.1 = private unnamed_addr constant [2 x i8] c"?\00", align 1
@.str.2 = private unnamed_addr constant [2 x i8] c" \00", align 1
@.str.3 = private unnamed_addr constant [2 x i8] c"\0A\00", align 1

; Function Attrs: noinline nounwind uwtable
define dso_local i32 @main() #0 {
  %1 = alloca i32, align 4
  %2 = alloca i32, align 4
  %3 = alloca i32, align 4
  %4 = alloca i32, align 4
  %5 = alloca i32, align 4
  store i32 0, i32* %1, align 4
  br label %6

6:                                                ; preds = %168, %0
  %7 = call i32 (i8*, ...) bitcast (i32 (...)* @gets to i32 (i8*, ...)*)(i8* getelementptr inbounds ([102 x i8], [102 x i8]* @main.c, i64 0, i64 0))
  %8 = icmp ne i32 %7, 0
  br i1 %8, label %9, label %170

9:                                                ; preds = %6
  %10 = call i32 @puts(i8* getelementptr inbounds ([102 x i8], [102 x i8]* @main.c, i64 0, i64 0))
  store i32 0, i32* %2, align 4
  br label %11

11:                                               ; preds = %46, %9
  %12 = load i32, i32* %2, align 4
  %13 = sext i32 %12 to i64
  %14 = getelementptr inbounds [102 x i8], [102 x i8]* @main.c, i64 0, i64 %13
  %15 = load i8, i8* %14, align 1
  %16 = sext i8 %15 to i32
  %17 = icmp ne i32 %16, 0
  br i1 %17, label %18, label %49

18:                                               ; preds = %11
  %19 = load i32, i32* %2, align 4
  %20 = sext i32 %19 to i64
  %21 = getelementptr inbounds [102 x i8], [102 x i8]* @main.c, i64 0, i64 %20
  %22 = load i8, i8* %21, align 1
  %23 = sext i8 %22 to i32
  %24 = icmp eq i32 %23, 40
  br i1 %24, label %25, label %29

25:                                               ; preds = %18
  %26 = load i32, i32* %2, align 4
  %27 = sext i32 %26 to i64
  %28 = getelementptr inbounds [102 x i8], [102 x i8]* @main.d, i64 0, i64 %27
  store i8 1, i8* %28, align 1
  br label %45

29:                                               ; preds = %18
  %30 = load i32, i32* %2, align 4
  %31 = sext i32 %30 to i64
  %32 = getelementptr inbounds [102 x i8], [102 x i8]* @main.c, i64 0, i64 %31
  %33 = load i8, i8* %32, align 1
  %34 = sext i8 %33 to i32
  %35 = icmp eq i32 %34, 41
  br i1 %35, label %36, label %40

36:                                               ; preds = %29
  %37 = load i32, i32* %2, align 4
  %38 = sext i32 %37 to i64
  %39 = getelementptr inbounds [102 x i8], [102 x i8]* @main.d, i64 0, i64 %38
  store i8 2, i8* %39, align 1
  br label %44

40:                                               ; preds = %29
  %41 = load i32, i32* %2, align 4
  %42 = sext i32 %41 to i64
  %43 = getelementptr inbounds [102 x i8], [102 x i8]* @main.d, i64 0, i64 %42
  store i8 3, i8* %43, align 1
  br label %44

44:                                               ; preds = %40, %36
  br label %45

45:                                               ; preds = %44, %25
  br label %46

46:                                               ; preds = %45
  %47 = load i32, i32* %2, align 4
  %48 = add nsw i32 %47, 1
  store i32 %48, i32* %2, align 4
  br label %11

49:                                               ; preds = %11
  br label %50

50:                                               ; preds = %49, %145
  store i32 0, i32* %5, align 4
  store i32 0, i32* %3, align 4
  br label %51

51:                                               ; preds = %65, %50
  %52 = load i32, i32* %3, align 4
  %53 = load i32, i32* %2, align 4
  %54 = sub nsw i32 %53, 2
  %55 = icmp sle i32 %52, %54
  br i1 %55, label %56, label %68

56:                                               ; preds = %51
  %57 = load i32, i32* %3, align 4
  %58 = sext i32 %57 to i64
  %59 = getelementptr inbounds [102 x i8], [102 x i8]* @main.d, i64 0, i64 %58
  %60 = load i8, i8* %59, align 1
  %61 = sext i8 %60 to i32
  %62 = icmp eq i32 %61, 1
  br i1 %62, label %63, label %64

63:                                               ; preds = %56
  br label %68

64:                                               ; preds = %56
  br label %65

65:                                               ; preds = %64
  %66 = load i32, i32* %3, align 4
  %67 = add nsw i32 %66, 1
  store i32 %67, i32* %3, align 4
  br label %51

68:                                               ; preds = %63, %51
  %69 = load i32, i32* %3, align 4
  %70 = add nsw i32 %69, 1
  store i32 %70, i32* %4, align 4
  br label %71

71:                                               ; preds = %85, %68
  %72 = load i32, i32* %4, align 4
  %73 = load i32, i32* %2, align 4
  %74 = sub nsw i32 %73, 1
  %75 = icmp sle i32 %72, %74
  br i1 %75, label %76, label %88

76:                                               ; preds = %71
  %77 = load i32, i32* %4, align 4
  %78 = sext i32 %77 to i64
  %79 = getelementptr inbounds [102 x i8], [102 x i8]* @main.d, i64 0, i64 %78
  %80 = load i8, i8* %79, align 1
  %81 = sext i8 %80 to i32
  %82 = icmp eq i32 %81, 2
  br i1 %82, label %83, label %84

83:                                               ; preds = %76
  store i32 1, i32* %5, align 4
  br label %88

84:                                               ; preds = %76
  br label %85

85:                                               ; preds = %84
  %86 = load i32, i32* %4, align 4
  %87 = add nsw i32 %86, 1
  store i32 %87, i32* %4, align 4
  br label %71

88:                                               ; preds = %83, %71
  %89 = load i32, i32* %5, align 4
  %90 = icmp eq i32 %89, 0
  br i1 %90, label %91, label %92

91:                                               ; preds = %88
  br label %146

92:                                               ; preds = %88
  store i32 0, i32* %3, align 4
  br label %93

93:                                               ; preds = %142, %92
  %94 = load i32, i32* %3, align 4
  %95 = load i32, i32* %2, align 4
  %96 = sub nsw i32 %95, 2
  %97 = icmp sle i32 %94, %96
  br i1 %97, label %98, label %145

98:                                               ; preds = %93
  %99 = load i32, i32* %3, align 4
  %100 = sext i32 %99 to i64
  %101 = getelementptr inbounds [102 x i8], [102 x i8]* @main.d, i64 0, i64 %100
  %102 = load i8, i8* %101, align 1
  %103 = sext i8 %102 to i32
  %104 = icmp eq i32 %103, 1
  br i1 %104, label %105, label %141

105:                                              ; preds = %98
  %106 = load i32, i32* %3, align 4
  %107 = add nsw i32 %106, 1
  store i32 %107, i32* %4, align 4
  br label %108

108:                                              ; preds = %137, %105
  %109 = load i32, i32* %4, align 4
  %110 = load i32, i32* %2, align 4
  %111 = sub nsw i32 %110, 1
  %112 = icmp sle i32 %109, %111
  br i1 %112, label %113, label %140

113:                                              ; preds = %108
  %114 = load i32, i32* %4, align 4
  %115 = sext i32 %114 to i64
  %116 = getelementptr inbounds [102 x i8], [102 x i8]* @main.d, i64 0, i64 %115
  %117 = load i8, i8* %116, align 1
  %118 = sext i8 %117 to i32
  %119 = icmp eq i32 %118, 1
  br i1 %119, label %120, label %122

120:                                              ; preds = %113
  %121 = load i32, i32* %4, align 4
  store i32 %121, i32* %3, align 4
  br label %122

122:                                              ; preds = %120, %113
  %123 = load i32, i32* %4, align 4
  %124 = sext i32 %123 to i64
  %125 = getelementptr inbounds [102 x i8], [102 x i8]* @main.d, i64 0, i64 %124
  %126 = load i8, i8* %125, align 1
  %127 = sext i8 %126 to i32
  %128 = icmp eq i32 %127, 2
  br i1 %128, label %129, label %136

129:                                              ; preds = %122
  %130 = load i32, i32* %3, align 4
  %131 = sext i32 %130 to i64
  %132 = getelementptr inbounds [102 x i8], [102 x i8]* @main.d, i64 0, i64 %131
  store i8 3, i8* %132, align 1
  %133 = load i32, i32* %4, align 4
  %134 = sext i32 %133 to i64
  %135 = getelementptr inbounds [102 x i8], [102 x i8]* @main.d, i64 0, i64 %134
  store i8 3, i8* %135, align 1
  br label %140

136:                                              ; preds = %122
  br label %137

137:                                              ; preds = %136
  %138 = load i32, i32* %4, align 4
  %139 = add nsw i32 %138, 1
  store i32 %139, i32* %4, align 4
  br label %108

140:                                              ; preds = %129, %108
  br label %141

141:                                              ; preds = %140, %98
  br label %142

142:                                              ; preds = %141
  %143 = load i32, i32* %3, align 4
  %144 = add nsw i32 %143, 1
  store i32 %144, i32* %3, align 4
  br label %93

145:                                              ; preds = %93
  br label %50

146:                                              ; preds = %91
  store i32 0, i32* %4, align 4
  br label %147

147:                                              ; preds = %165, %146
  %148 = load i32, i32* %4, align 4
  %149 = load i32, i32* %2, align 4
  %150 = sub nsw i32 %149, 1
  %151 = icmp sle i32 %148, %150
  br i1 %151, label %152, label %168

152:                                              ; preds = %147
  %153 = load i32, i32* %4, align 4
  %154 = sext i32 %153 to i64
  %155 = getelementptr inbounds [102 x i8], [102 x i8]* @main.d, i64 0, i64 %154
  %156 = load i8, i8* %155, align 1
  %157 = sext i8 %156 to i32
  switch i32 %157, label %164 [
    i32 1, label %158
    i32 2, label %160
    i32 3, label %162
  ]

158:                                              ; preds = %152
  %159 = call i32 (i8*, ...) @printf(i8* getelementptr inbounds ([2 x i8], [2 x i8]* @.str, i64 0, i64 0))
  br label %164

160:                                              ; preds = %152
  %161 = call i32 (i8*, ...) @printf(i8* getelementptr inbounds ([2 x i8], [2 x i8]* @.str.1, i64 0, i64 0))
  br label %164

162:                                              ; preds = %152
  %163 = call i32 (i8*, ...) @printf(i8* getelementptr inbounds ([2 x i8], [2 x i8]* @.str.2, i64 0, i64 0))
  br label %164

164:                                              ; preds = %152, %162, %160, %158
  br label %165

165:                                              ; preds = %164
  %166 = load i32, i32* %4, align 4
  %167 = add nsw i32 %166, 1
  store i32 %167, i32* %4, align 4
  br label %147

168:                                              ; preds = %147
  %169 = call i32 (i8*, ...) @printf(i8* getelementptr inbounds ([2 x i8], [2 x i8]* @.str.3, i64 0, i64 0))
  br label %6

170:                                              ; preds = %6
  %171 = load i32, i32* %1, align 4
  ret i32 %171
}

declare dso_local i32 @gets(...) #1

declare dso_local i32 @puts(i8*) #1

declare dso_local i32 @printf(i8*, ...) #1


!llvm.module.flags = !{!0}
!llvm.ident = !{!1}

!0 = !{i32 1, !"wchar_size", i32 4}
!1 = !{!"clang version 10.0.0-4ubuntu1 "}
